; Function Attrs: nounwind uwtable
define hidden i32 @SSL_do_handshake(ptr noundef initializes((144, 148)) %0) local_unnamed_addr #0 {
  %2 = getelementptr inbounds nuw i8, ptr %0, i64 144
  store i32 1, ptr %2, align 8, !tbaa !109
  tail call void @ERR_clear_error() #21
  %3 = getelementptr inbounds nuw i8, ptr %0, i64 40
  %4 = load ptr, ptr %3, align 8, !tbaa !130
  %5 = icmp eq ptr %4, null
  br i1 %5, label %6, label %7

6:                                                ; preds = %1
  tail call void @ERR_put_error(i32 noundef 16, i32 noundef 0, i32 noundef 134, ptr noundef nonnull @.str, i32 noundef 556) #21
  br label %13

7:                                                ; preds = %1
  %8 = getelementptr inbounds nuw i8, ptr %0, i64 52
  %9 = load i32, ptr %8, align 4, !tbaa !128
  %10 = and i32 %9, 12288
  %.not5 = icmp eq i32 %10, 0
  br i1 %.not5, label %13, label %11

11:                                               ; preds = %7
  %12 = tail call i32 %4(ptr noundef nonnull %0) #21
  br label %13

13:                                               ; preds = %7, %11, %6
  %.0 = phi i32 [ -1, %6 ], [ %12, %11 ], [ 1, %7 ]
  ret i32 %.0
}